target datalayout = "e-m:e-p270:32:32-p271:32:32-p272:64:64-i64:64-i128:128-f80:128-n8:16:32:64-S128"
target triple = "x86_64-pc-linux-gnu"

@.str.1 = private unnamed_addr constant [13 x i8] c"parse_type.c\00", align 1
@.str.5 = private unnamed_addr constant [32 x i8] c"cache lookup failed for type %u\00", align 1
@__func__.typeidType = private unnamed_addr constant [11 x i8] c"typeidType\00", align 1

; Function Attrs: inlinehint nounwind uwtable
define internal i64 @ObjectIdGetDatum(i32 noundef %0) #3 {
  %2 = alloca i32, align 4
  store i32 %0, ptr %2, align 4
  %3 = load i32, ptr %2, align 4
  %4 = zext i32 %3 to i64
  ret i64 %4
}

; Function Attrs: nounwind uwtable
define dso_local ptr @typeidType(i32 noundef %0) #0 {
  %2 = alloca i32, align 4
  %3 = alloca ptr, align 8
  store i32 %0, ptr %2, align 4
  call void @llvm.lifetime.start.p0(i64 8, ptr %3) #7
  %4 = load i32, ptr %2, align 4
  %5 = call i64 @ObjectIdGetDatum(i32 noundef %4)
  %6 = call ptr @SearchSysCache1(i32 noundef 82, i64 noundef %5)
  store ptr %6, ptr %3, align 8
  %7 = load ptr, ptr %3, align 8
  %8 = icmp ne ptr %7, null
  br i1 %8, label %21, label %9

9:                                                ; preds = %1
  br label %10

10:                                               ; preds = %9
  br i1 true, label %11, label %13

11:                                               ; preds = %10
  %12 = call zeroext i1 @errstart_cold(i32 noundef 21, ptr noundef null) #8
  br i1 %12, label %15, label %18

13:                                               ; preds = %10
  %14 = call zeroext i1 @errstart(i32 noundef 21, ptr noundef null)
  br i1 %14, label %15, label %18

15:                                               ; preds = %13, %11
  %16 = load i32, ptr %2, align 4
  %17 = call i32 (ptr, ...) @errmsg_internal(ptr noundef @.str.5, i32 noundef %16)
  call void @errfinish(ptr noundef @.str.1, i32 noundef 584, ptr noundef @__func__.typeidType)
  br label %18

18:                                               ; preds = %15, %13, %11
  unreachable

19:                                               ; No predecessors!
  br label %20

20:                                               ; preds = %19
  br label %21

21:                                               ; preds = %20, %1
  %22 = load ptr, ptr %3, align 8
  call void @llvm.lifetime.end.p0(i64 8, ptr %3) #7
  ret ptr %22
}