; Function Attrs: nounwind uwtable
define dso_local nonnull ptr @typeidType(i32 noundef %0) local_unnamed_addr #0 {
  %2 = zext i32 %0 to i64
  %3 = tail call ptr @SearchSysCache1(i32 noundef 82, i64 noundef %2) #7
  %.not = icmp eq ptr %3, null
  br i1 %.not, label %4, label %7

4:                                                ; preds = %1
  %5 = tail call zeroext i1 @errstart_cold(i32 noundef 21, ptr noundef null) #8
  tail call void @llvm.assume(i1 %5)
  %6 = tail call i32 (ptr, ...) @errmsg_internal(ptr noundef nonnull @.str.5, i32 noundef %0) #7
  tail call void @errfinish(ptr noundef nonnull @.str.1, i32 noundef 584, ptr noundef nonnull @__func__.typeidType) #7
  unreachable

7:                                                ; preds = %1
  ret ptr %3
}